; Function Attrs: mustprogress uwtable
define void @_ZN18OpenImageIO_v2_6_05debugENS_17basic_string_viewIcSt11char_traitsIcEEE(ptr nocapture noundef readonly %message) local_unnamed_addr #5 {
entry:
  %agg.tmp = alloca %"class.OpenImageIO_v2_6_0::basic_string_view", align 8
  %0 = load ptr, ptr %message, align 8
  store ptr %0, ptr %agg.tmp, align 8
  %m_len.i = getelementptr inbounds i8, ptr %agg.tmp, i64 8
  %m_len.i.i = getelementptr inbounds i8, ptr %message, i64 8
  %1 = load i64, ptr %m_len.i.i, align 8
  store i64 %1, ptr %m_len.i, align 8
  call void @_ZN18OpenImageIO_v2_6_07Strutil3pvt5debugENS_17basic_string_viewIcSt11char_traitsIcEEE(ptr noundef nonnull %agg.tmp)
  ret void
}